; ModuleID = '55/106.c'
source_filename = "55/106.c"
target datalayout = "e-m:e-p270:32:32-p271:32:32-p272:64:64-i64:64-f80:128-n8:16:32:64-S128"
target triple = "x86_64-pc-linux-gnu"

@.str = private unnamed_addr constant [9 x i8] c"%d %s %d\00", align 1
@.str.1 = private unnamed_addr constant [3 x i8] c"%c\00", align 1
@.str.2 = private unnamed_addr constant [3 x i8] c"%d\00", align 1

; Function Attrs: noinline nounwind uwtable
define dso_local i32 @main() #0 {
  %1 = alloca i32, align 4
  %2 = alloca [100 x i8], align 16
  %3 = alloca i32, align 4
  %4 = alloca i32, align 4
  %5 = alloca i32, align 4
  %6 = alloca i64, align 8
  %7 = alloca i64, align 8
  %8 = alloca i32, align 4
  %9 = alloca i32, align 4
  %10 = alloca [100 x i8], align 16
  %11 = alloca i32, align 4
  %12 = alloca i32, align 4
  store i32 0, i32* %1, align 4
  %13 = call i32 (i8*, ...) @__isoc99_scanf(i8* getelementptr inbounds ([9 x i8], [9 x i8]* @.str, i64 0, i64 0), i32* %3, [100 x i8]* %2, i32* %4)
  %14 = getelementptr inbounds [100 x i8], [100 x i8]* %2, i64 0, i64 0
  %15 = call i64 @strlen(i8* %14) #3
  %16 = trunc i64 %15 to i32
  store i32 %16, i32* %5, align 4
  store i64 0, i64* %6, align 8
  store i32 0, i32* %8, align 4
  br label %17

17:                                               ; preds = %110, %0
  %18 = load i32, i32* %8, align 4
  %19 = load i32, i32* %5, align 4
  %20 = sub nsw i32 %19, 1
  %21 = icmp sle i32 %18, %20
  br i1 %21, label %22, label %113

22:                                               ; preds = %17
  %23 = load i32, i32* %8, align 4
  %24 = sext i32 %23 to i64
  %25 = getelementptr inbounds [100 x i8], [100 x i8]* %2, i64 0, i64 %24
  %26 = load i8, i8* %25, align 1
  %27 = sext i8 %26 to i32
  %28 = icmp sge i32 %27, 48
  br i1 %28, label %29, label %47

29:                                               ; preds = %22
  %30 = load i32, i32* %8, align 4
  %31 = sext i32 %30 to i64
  %32 = getelementptr inbounds [100 x i8], [100 x i8]* %2, i64 0, i64 %31
  %33 = load i8, i8* %32, align 1
  %34 = sext i8 %33 to i32
  %35 = icmp sle i32 %34, 57
  br i1 %35, label %36, label %47

36:                                               ; preds = %29
  %37 = load i32, i32* %8, align 4
  %38 = sext i32 %37 to i64
  %39 = getelementptr inbounds [100 x i8], [100 x i8]* %2, i64 0, i64 %38
  %40 = load i8, i8* %39, align 1
  %41 = sext i8 %40 to i32
  %42 = sub nsw i32 %41, 48
  %43 = trunc i32 %42 to i8
  %44 = load i32, i32* %8, align 4
  %45 = sext i32 %44 to i64
  %46 = getelementptr inbounds [100 x i8], [100 x i8]* %2, i64 0, i64 %45
  store i8 %43, i8* %46, align 1
  br label %84

47:                                               ; preds = %29, %22
  %48 = load i32, i32* %8, align 4
  %49 = sext i32 %48 to i64
  %50 = getelementptr inbounds [100 x i8], [100 x i8]* %2, i64 0, i64 %49
  %51 = load i8, i8* %50, align 1
  %52 = sext i8 %51 to i32
  %53 = icmp sge i32 %52, 65
  br i1 %53, label %54, label %72

54:                                               ; preds = %47
  %55 = load i32, i32* %8, align 4
  %56 = sext i32 %55 to i64
  %57 = getelementptr inbounds [100 x i8], [100 x i8]* %2, i64 0, i64 %56
  %58 = load i8, i8* %57, align 1
  %59 = sext i8 %58 to i32
  %60 = icmp sle i32 %59, 90
  br i1 %60, label %61, label %72

61:                                               ; preds = %54
  %62 = load i32, i32* %8, align 4
  %63 = sext i32 %62 to i64
  %64 = getelementptr inbounds [100 x i8], [100 x i8]* %2, i64 0, i64 %63
  %65 = load i8, i8* %64, align 1
  %66 = sext i8 %65 to i32
  %67 = sub nsw i32 %66, 55
  %68 = trunc i32 %67 to i8
  %69 = load i32, i32* %8, align 4
  %70 = sext i32 %69 to i64
  %71 = getelementptr inbounds [100 x i8], [100 x i8]* %2, i64 0, i64 %70
  store i8 %68, i8* %71, align 1
  br label %83

72:                                               ; preds = %54, %47
  %73 = load i32, i32* %8, align 4
  %74 = sext i32 %73 to i64
  %75 = getelementptr inbounds [100 x i8], [100 x i8]* %2, i64 0, i64 %74
  %76 = load i8, i8* %75, align 1
  %77 = sext i8 %76 to i32
  %78 = sub nsw i32 %77, 87
  %79 = trunc i32 %78 to i8
  %80 = load i32, i32* %8, align 4
  %81 = sext i32 %80 to i64
  %82 = getelementptr inbounds [100 x i8], [100 x i8]* %2, i64 0, i64 %81
  store i8 %79, i8* %82, align 1
  br label %83

83:                                               ; preds = %72, %61
  br label %84

84:                                               ; preds = %83, %36
  store i64 1, i64* %7, align 8
  store i32 1, i32* %9, align 4
  br label %85

85:                                               ; preds = %97, %84
  %86 = load i32, i32* %9, align 4
  %87 = load i32, i32* %5, align 4
  %88 = load i32, i32* %8, align 4
  %89 = sub nsw i32 %87, %88
  %90 = sub nsw i32 %89, 1
  %91 = icmp sle i32 %86, %90
  br i1 %91, label %92, label %100

92:                                               ; preds = %85
  %93 = load i64, i64* %7, align 8
  %94 = load i32, i32* %3, align 4
  %95 = sext i32 %94 to i64
  %96 = mul nsw i64 %93, %95
  store i64 %96, i64* %7, align 8
  br label %97

97:                                               ; preds = %92
  %98 = load i32, i32* %9, align 4
  %99 = add nsw i32 %98, 1
  store i32 %99, i32* %9, align 4
  br label %85

100:                                              ; preds = %85
  %101 = load i64, i64* %6, align 8
  %102 = load i64, i64* %7, align 8
  %103 = load i32, i32* %8, align 4
  %104 = sext i32 %103 to i64
  %105 = getelementptr inbounds [100 x i8], [100 x i8]* %2, i64 0, i64 %104
  %106 = load i8, i8* %105, align 1
  %107 = sext i8 %106 to i64
  %108 = mul nsw i64 %102, %107
  %109 = add nsw i64 %101, %108
  store i64 %109, i64* %6, align 8
  br label %110

110:                                              ; preds = %100
  %111 = load i32, i32* %8, align 4
  %112 = add nsw i32 %111, 1
  store i32 %112, i32* %8, align 4
  br label %17

113:                                              ; preds = %17
  store i32 0, i32* %12, align 4
  br label %114

114:                                              ; preds = %145, %113
  %115 = load i64, i64* %6, align 8
  %116 = load i32, i32* %4, align 4
  %117 = sext i32 %116 to i64
  %118 = icmp sge i64 %115, %117
  br i1 %118, label %119, label %148

119:                                              ; preds = %114
  %120 = load i64, i64* %6, align 8
  %121 = load i32, i32* %4, align 4
  %122 = sext i32 %121 to i64
  %123 = srem i64 %120, %122
  %124 = trunc i64 %123 to i32
  store i32 %124, i32* %11, align 4
  %125 = load i64, i64* %6, align 8
  %126 = load i32, i32* %4, align 4
  %127 = sext i32 %126 to i64
  %128 = sdiv i64 %125, %127
  store i64 %128, i64* %6, align 8
  %129 = load i32, i32* %11, align 4
  %130 = icmp slt i32 %129, 10
  br i1 %130, label %131, label %138

131:                                              ; preds = %119
  %132 = load i32, i32* %11, align 4
  %133 = add nsw i32 %132, 48
  %134 = trunc i32 %133 to i8
  %135 = load i32, i32* %12, align 4
  %136 = sext i32 %135 to i64
  %137 = getelementptr inbounds [100 x i8], [100 x i8]* %10, i64 0, i64 %136
  store i8 %134, i8* %137, align 1
  br label %145

138:                                              ; preds = %119
  %139 = load i32, i32* %11, align 4
  %140 = add nsw i32 %139, 55
  %141 = trunc i32 %140 to i8
  %142 = load i32, i32* %12, align 4
  %143 = sext i32 %142 to i64
  %144 = getelementptr inbounds [100 x i8], [100 x i8]* %10, i64 0, i64 %143
  store i8 %141, i8* %144, align 1
  br label %145

145:                                              ; preds = %138, %131
  %146 = load i32, i32* %12, align 4
  %147 = add nsw i32 %146, 1
  store i32 %147, i32* %12, align 4
  br label %114

148:                                              ; preds = %114
  %149 = load i64, i64* %6, align 8
  %150 = icmp slt i64 %149, 10
  br i1 %150, label %151, label %158

151:                                              ; preds = %148
  %152 = load i64, i64* %6, align 8
  %153 = add nsw i64 %152, 48
  %154 = trunc i64 %153 to i8
  %155 = load i32, i32* %12, align 4
  %156 = sext i32 %155 to i64
  %157 = getelementptr inbounds [100 x i8], [100 x i8]* %10, i64 0, i64 %156
  store i8 %154, i8* %157, align 1
  br label %165

158:                                              ; preds = %148
  %159 = load i64, i64* %6, align 8
  %160 = add nsw i64 %159, 55
  %161 = trunc i64 %160 to i8
  %162 = load i32, i32* %12, align 4
  %163 = sext i32 %162 to i64
  %164 = getelementptr inbounds [100 x i8], [100 x i8]* %10, i64 0, i64 %163
  store i8 %161, i8* %164, align 1
  br label %165

165:                                              ; preds = %158, %151
  %166 = load i32, i32* %12, align 4
  store i32 %166, i32* %8, align 4
  br label %167

167:                                              ; preds = %177, %165
  %168 = load i32, i32* %8, align 4
  %169 = icmp sge i32 %168, 0
  br i1 %169, label %170, label %180

170:                                              ; preds = %167
  %171 = load i32, i32* %8, align 4
  %172 = sext i32 %171 to i64
  %173 = getelementptr inbounds [100 x i8], [100 x i8]* %10, i64 0, i64 %172
  %174 = load i8, i8* %173, align 1
  %175 = sext i8 %174 to i32
  %176 = call i32 (i8*, ...) @printf(i8* getelementptr inbounds ([3 x i8], [3 x i8]* @.str.1, i64 0, i64 0), i32 %175)
  br label %177

177:                                              ; preds = %170
  %178 = load i32, i32* %8, align 4
  %179 = add nsw i32 %178, -1
  store i32 %179, i32* %8, align 4
  br label %167

180:                                              ; preds = %167
  %181 = call i32 (i8*, ...) @__isoc99_scanf(i8* getelementptr inbounds ([3 x i8], [3 x i8]* @.str.2, i64 0, i64 0), i32* %8)
  %182 = load i32, i32* %1, align 4
  ret i32 %182
}

declare dso_local i32 @__isoc99_scanf(i8*, ...) #1

; Function Attrs: nounwind readonly
declare dso_local i64 @strlen(i8*) #2

declare dso_local i32 @printf(i8*, ...) #1


!llvm.module.flags = !{!0}
!llvm.ident = !{!1}

!0 = !{i32 1, !"wchar_size", i32 4}
!1 = !{!"clang version 10.0.0-4ubuntu1 "}
